; ModuleID = '39/399.c'
source_filename = "39/399.c"
target datalayout = "e-m:e-p270:32:32-p271:32:32-p272:64:64-i64:64-f80:128-n8:16:32:64-S128"
target triple = "x86_64-pc-linux-gnu"

%struct.student = type { [22 x i8], i32, i32, i8, i8, i32 }

@.str = private unnamed_addr constant [3 x i8] c"%d\00", align 1
@.str.1 = private unnamed_addr constant [18 x i8] c"%s %d %d %c %c %d\00", align 1
@.str.2 = private unnamed_addr constant [10 x i8] c"%s\0A%d\0A%d\0A\00", align 1

; Function Attrs: noinline nounwind uwtable
define dso_local void @main() #0 {
  %1 = alloca i32, align 4
  %2 = alloca i32, align 4
  %3 = alloca i32, align 4
  %4 = alloca i32, align 4
  %5 = alloca i32, align 4
  %6 = alloca i32, align 4
  %7 = alloca %struct.student, align 4
  %8 = alloca %struct.student*, align 8
  store i32 0, i32* %3, align 4
  store i32 0, i32* %5, align 4
  store i32 0, i32* %6, align 4
  %9 = call i32 (i8*, ...) @__isoc99_scanf(i8* getelementptr inbounds ([3 x i8], [3 x i8]* @.str, i64 0, i64 0), i32* %1)
  %10 = load i32, i32* %1, align 4
  %11 = sext i32 %10 to i64
  %12 = mul i64 %11, 40
  %13 = call noalias i8* @malloc(i64 %12) #3
  %14 = bitcast i8* %13 to %struct.student*
  store %struct.student* %14, %struct.student** %8, align 8
  store i32 0, i32* %2, align 4
  br label %15

15:                                               ; preds = %151, %0
  %16 = load i32, i32* %2, align 4
  %17 = load i32, i32* %1, align 4
  %18 = icmp slt i32 %16, %17
  br i1 %18, label %19, label %154

19:                                               ; preds = %15
  store i32 0, i32* %4, align 4
  %20 = load %struct.student*, %struct.student** %8, align 8
  %21 = load i32, i32* %2, align 4
  %22 = sext i32 %21 to i64
  %23 = getelementptr inbounds %struct.student, %struct.student* %20, i64 %22
  %24 = getelementptr inbounds %struct.student, %struct.student* %23, i32 0, i32 0
  %25 = getelementptr inbounds [22 x i8], [22 x i8]* %24, i64 0, i64 0
  %26 = load %struct.student*, %struct.student** %8, align 8
  %27 = load i32, i32* %2, align 4
  %28 = sext i32 %27 to i64
  %29 = getelementptr inbounds %struct.student, %struct.student* %26, i64 %28
  %30 = getelementptr inbounds %struct.student, %struct.student* %29, i32 0, i32 1
  %31 = load %struct.student*, %struct.student** %8, align 8
  %32 = load i32, i32* %2, align 4
  %33 = sext i32 %32 to i64
  %34 = getelementptr inbounds %struct.student, %struct.student* %31, i64 %33
  %35 = getelementptr inbounds %struct.student, %struct.student* %34, i32 0, i32 2
  %36 = load %struct.student*, %struct.student** %8, align 8
  %37 = load i32, i32* %2, align 4
  %38 = sext i32 %37 to i64
  %39 = getelementptr inbounds %struct.student, %struct.student* %36, i64 %38
  %40 = getelementptr inbounds %struct.student, %struct.student* %39, i32 0, i32 3
  %41 = load %struct.student*, %struct.student** %8, align 8
  %42 = load i32, i32* %2, align 4
  %43 = sext i32 %42 to i64
  %44 = getelementptr inbounds %struct.student, %struct.student* %41, i64 %43
  %45 = getelementptr inbounds %struct.student, %struct.student* %44, i32 0, i32 4
  %46 = load %struct.student*, %struct.student** %8, align 8
  %47 = load i32, i32* %2, align 4
  %48 = sext i32 %47 to i64
  %49 = getelementptr inbounds %struct.student, %struct.student* %46, i64 %48
  %50 = getelementptr inbounds %struct.student, %struct.student* %49, i32 0, i32 5
  %51 = call i32 (i8*, ...) @__isoc99_scanf(i8* getelementptr inbounds ([18 x i8], [18 x i8]* @.str.1, i64 0, i64 0), i8* %25, i32* %30, i32* %35, i8* %40, i8* %45, i32* %50)
  %52 = load %struct.student*, %struct.student** %8, align 8
  %53 = load i32, i32* %2, align 4
  %54 = sext i32 %53 to i64
  %55 = getelementptr inbounds %struct.student, %struct.student* %52, i64 %54
  %56 = getelementptr inbounds %struct.student, %struct.student* %55, i32 0, i32 1
  %57 = load i32, i32* %56, align 4
  %58 = icmp sgt i32 %57, 80
  br i1 %58, label %59, label %70

59:                                               ; preds = %19
  %60 = load %struct.student*, %struct.student** %8, align 8
  %61 = load i32, i32* %2, align 4
  %62 = sext i32 %61 to i64
  %63 = getelementptr inbounds %struct.student, %struct.student* %60, i64 %62
  %64 = getelementptr inbounds %struct.student, %struct.student* %63, i32 0, i32 5
  %65 = load i32, i32* %64, align 4
  %66 = icmp sge i32 %65, 1
  br i1 %66, label %67, label %70

67:                                               ; preds = %59
  %68 = load i32, i32* %4, align 4
  %69 = add nsw i32 %68, 8000
  store i32 %69, i32* %4, align 4
  br label %70

70:                                               ; preds = %67, %59, %19
  %71 = load %struct.student*, %struct.student** %8, align 8
  %72 = load i32, i32* %2, align 4
  %73 = sext i32 %72 to i64
  %74 = getelementptr inbounds %struct.student, %struct.student* %71, i64 %73
  %75 = getelementptr inbounds %struct.student, %struct.student* %74, i32 0, i32 1
  %76 = load i32, i32* %75, align 4
  %77 = icmp sgt i32 %76, 85
  br i1 %77, label %78, label %89

78:                                               ; preds = %70
  %79 = load %struct.student*, %struct.student** %8, align 8
  %80 = load i32, i32* %2, align 4
  %81 = sext i32 %80 to i64
  %82 = getelementptr inbounds %struct.student, %struct.student* %79, i64 %81
  %83 = getelementptr inbounds %struct.student, %struct.student* %82, i32 0, i32 2
  %84 = load i32, i32* %83, align 4
  %85 = icmp sgt i32 %84, 80
  br i1 %85, label %86, label %89

86:                                               ; preds = %78
  %87 = load i32, i32* %4, align 4
  %88 = add nsw i32 %87, 4000
  store i32 %88, i32* %4, align 4
  br label %89

89:                                               ; preds = %86, %78, %70
  %90 = load %struct.student*, %struct.student** %8, align 8
  %91 = load i32, i32* %2, align 4
  %92 = sext i32 %91 to i64
  %93 = getelementptr inbounds %struct.student, %struct.student* %90, i64 %92
  %94 = getelementptr inbounds %struct.student, %struct.student* %93, i32 0, i32 1
  %95 = load i32, i32* %94, align 4
  %96 = icmp sgt i32 %95, 90
  br i1 %96, label %97, label %100

97:                                               ; preds = %89
  %98 = load i32, i32* %4, align 4
  %99 = add nsw i32 %98, 2000
  store i32 %99, i32* %4, align 4
  br label %100

100:                                              ; preds = %97, %89
  %101 = load %struct.student*, %struct.student** %8, align 8
  %102 = load i32, i32* %2, align 4
  %103 = sext i32 %102 to i64
  %104 = getelementptr inbounds %struct.student, %struct.student* %101, i64 %103
  %105 = getelementptr inbounds %struct.student, %struct.student* %104, i32 0, i32 1
  %106 = load i32, i32* %105, align 4
  %107 = icmp sgt i32 %106, 85
  br i1 %107, label %108, label %120

108:                                              ; preds = %100
  %109 = load %struct.student*, %struct.student** %8, align 8
  %110 = load i32, i32* %2, align 4
  %111 = sext i32 %110 to i64
  %112 = getelementptr inbounds %struct.student, %struct.student* %109, i64 %111
  %113 = getelementptr inbounds %struct.student, %struct.student* %112, i32 0, i32 4
  %114 = load i8, i8* %113, align 1
  %115 = sext i8 %114 to i32
  %116 = icmp eq i32 %115, 89
  br i1 %116, label %117, label %120

117:                                              ; preds = %108
  %118 = load i32, i32* %4, align 4
  %119 = add nsw i32 %118, 1000
  store i32 %119, i32* %4, align 4
  br label %120

120:                                              ; preds = %117, %108, %100
  %121 = load %struct.student*, %struct.student** %8, align 8
  %122 = load i32, i32* %2, align 4
  %123 = sext i32 %122 to i64
  %124 = getelementptr inbounds %struct.student, %struct.student* %121, i64 %123
  %125 = getelementptr inbounds %struct.student, %struct.student* %124, i32 0, i32 2
  %126 = load i32, i32* %125, align 4
  %127 = icmp sgt i32 %126, 80
  br i1 %127, label %128, label %140

128:                                              ; preds = %120
  %129 = load %struct.student*, %struct.student** %8, align 8
  %130 = load i32, i32* %2, align 4
  %131 = sext i32 %130 to i64
  %132 = getelementptr inbounds %struct.student, %struct.student* %129, i64 %131
  %133 = getelementptr inbounds %struct.student, %struct.student* %132, i32 0, i32 3
  %134 = load i8, i8* %133, align 4
  %135 = sext i8 %134 to i32
  %136 = icmp eq i32 %135, 89
  br i1 %136, label %137, label %140

137:                                              ; preds = %128
  %138 = load i32, i32* %4, align 4
  %139 = add nsw i32 %138, 850
  store i32 %139, i32* %4, align 4
  br label %140

140:                                              ; preds = %137, %128, %120
  %141 = load i32, i32* %4, align 4
  %142 = load i32, i32* %6, align 4
  %143 = icmp sgt i32 %141, %142
  br i1 %143, label %144, label %147

144:                                              ; preds = %140
  %145 = load i32, i32* %4, align 4
  store i32 %145, i32* %6, align 4
  %146 = load i32, i32* %2, align 4
  store i32 %146, i32* %3, align 4
  br label %147

147:                                              ; preds = %144, %140
  %148 = load i32, i32* %5, align 4
  %149 = load i32, i32* %4, align 4
  %150 = add nsw i32 %148, %149
  store i32 %150, i32* %5, align 4
  br label %151

151:                                              ; preds = %147
  %152 = load i32, i32* %2, align 4
  %153 = add nsw i32 %152, 1
  store i32 %153, i32* %2, align 4
  br label %15

154:                                              ; preds = %15
  %155 = load %struct.student*, %struct.student** %8, align 8
  %156 = load i32, i32* %3, align 4
  %157 = sext i32 %156 to i64
  %158 = getelementptr inbounds %struct.student, %struct.student* %155, i64 %157
  %159 = getelementptr inbounds %struct.student, %struct.student* %158, i32 0, i32 0
  %160 = getelementptr inbounds [22 x i8], [22 x i8]* %159, i64 0, i64 0
  %161 = load i32, i32* %6, align 4
  %162 = load i32, i32* %5, align 4
  %163 = call i32 (i8*, ...) @printf(i8* getelementptr inbounds ([10 x i8], [10 x i8]* @.str.2, i64 0, i64 0), i8* %160, i32 %161, i32 %162)
  ret void
}

declare dso_local i32 @__isoc99_scanf(i8*, ...) #1

; Function Attrs: nounwind
declare dso_local noalias i8* @malloc(i64) #2

declare dso_local i32 @printf(i8*, ...) #1


!llvm.module.flags = !{!0}
!llvm.ident = !{!1}

!0 = !{i32 1, !"wchar_size", i32 4}
!1 = !{!"clang version 10.0.0-4ubuntu1 "}
